; Function Attrs: nounwind uwtable
define hidden void @arena_migrate(ptr noundef %tsd, ptr noundef %oldarena, ptr noundef %newarena) local_unnamed_addr #1 {
entry:
  tail call void @arena_nthreads_dec(ptr noundef %oldarena, i1 noundef zeroext false) #19
  tail call void @arena_nthreads_inc(ptr noundef %newarena, i1 noundef zeroext false) #19
  %cant_access_tsd_items_directly_use_a_getter_or_setter_arena.i = getelementptr inbounds i8, ptr %tsd, i64 144
  store ptr %newarena, ptr %cant_access_tsd_items_directly_use_a_getter_or_setter_arena.i, align 8
  %call = tail call i32 @arena_nthreads_get(ptr noundef %oldarena, i1 noundef zeroext false) #19
  %cmp = icmp eq i32 %call, 0
  br i1 %cmp, label %if.then, label %if.end

if.then:                                          ; preds = %entry
  tail call void @arena_decay(ptr noundef nonnull %tsd, ptr noundef %oldarena, i1 noundef zeroext false, i1 noundef zeroext true) #19
  br label %if.end

if.end:                                           ; preds = %if.then, %entry
  ret void
}